target datalayout = "e-m:e-p270:32:32-p271:32:32-p272:64:64-i64:64-i128:128-f80:128-n8:16:32:64-S128"
target triple = "x86_64-pc-linux-gnu"

@.str.19 = private unnamed_addr constant [3 x i8] c"%s\00", align 1

; Function Attrs: inlinehint nounwind uwtable
define internal ptr @ossl_check_const_SCT_sk_type(ptr noundef %0) #3 {
  %2 = alloca ptr, align 8
  store ptr %0, ptr %2, align 8, !tbaa !34
  %3 = load ptr, ptr %2, align 8, !tbaa !34
  ret ptr %3
}

; Function Attrs: nounwind uwtable
define void @SCT_LIST_print(ptr noundef %0, ptr noundef %1, i32 noundef %2, ptr noundef %3, ptr noundef %4) #0 {
  %6 = alloca ptr, align 8
  %7 = alloca ptr, align 8
  %8 = alloca i32, align 4
  %9 = alloca ptr, align 8
  %10 = alloca ptr, align 8
  %11 = alloca i32, align 4
  %12 = alloca i32, align 4
  %13 = alloca ptr, align 8
  store ptr %0, ptr %6, align 8, !tbaa !34
  store ptr %1, ptr %7, align 8, !tbaa !8
  store i32 %2, ptr %8, align 4, !tbaa !10
  store ptr %3, ptr %9, align 8, !tbaa !36
  store ptr %4, ptr %10, align 8, !tbaa !12
  call void @llvm.lifetime.start.p0(i64 4, ptr %11) #4
  %14 = load ptr, ptr %6, align 8, !tbaa !34
  %15 = call ptr @ossl_check_const_SCT_sk_type(ptr noundef %14)
  %16 = call i32 @OPENSSL_sk_num(ptr noundef %15)
  store i32 %16, ptr %11, align 4, !tbaa !10
  call void @llvm.lifetime.start.p0(i64 4, ptr %12) #4
  store i32 0, ptr %12, align 4, !tbaa !10
  br label %17

17:                                               ; preds = %41, %5
  %18 = load i32, ptr %12, align 4, !tbaa !10
  %19 = load i32, ptr %11, align 4, !tbaa !10
  %20 = icmp slt i32 %18, %19
  br i1 %20, label %21, label %44

21:                                               ; preds = %17
  call void @llvm.lifetime.start.p0(i64 8, ptr %13) #4
  %22 = load ptr, ptr %6, align 8, !tbaa !34
  %23 = call ptr @ossl_check_const_SCT_sk_type(ptr noundef %22)
  %24 = load i32, ptr %12, align 4, !tbaa !10
  %25 = call ptr @OPENSSL_sk_value(ptr noundef %23, i32 noundef %24)
  store ptr %25, ptr %13, align 8, !tbaa !3
  %26 = load ptr, ptr %13, align 8, !tbaa !3
  %27 = load ptr, ptr %7, align 8, !tbaa !8
  %28 = load i32, ptr %8, align 4, !tbaa !10
  %29 = load ptr, ptr %10, align 8, !tbaa !12
  call void @SCT_print(ptr noundef %26, ptr noundef %27, i32 noundef %28, ptr noundef %29)
  %30 = load i32, ptr %12, align 4, !tbaa !10
  %31 = load ptr, ptr %6, align 8, !tbaa !34
  %32 = call ptr @ossl_check_const_SCT_sk_type(ptr noundef %31)
  %33 = call i32 @OPENSSL_sk_num(ptr noundef %32)
  %34 = sub nsw i32 %33, 1
  %35 = icmp slt i32 %30, %34
  br i1 %35, label %36, label %40

36:                                               ; preds = %21
  %37 = load ptr, ptr %7, align 8, !tbaa !8
  %38 = load ptr, ptr %9, align 8, !tbaa !36
  %39 = call i32 (ptr, ptr, ...) @BIO_printf(ptr noundef %37, ptr noundef @.str.19, ptr noundef %38)
  br label %40

40:                                               ; preds = %36, %21
  call void @llvm.lifetime.end.p0(i64 8, ptr %13) #4
  br label %41

41:                                               ; preds = %40
  %42 = load i32, ptr %12, align 4, !tbaa !10
  %43 = add nsw i32 %42, 1
  store i32 %43, ptr %12, align 4, !tbaa !10
  br label %17, !llvm.loop !37

44:                                               ; preds = %17
  call void @llvm.lifetime.end.p0(i64 4, ptr %12) #4
  call void @llvm.lifetime.end.p0(i64 4, ptr %11) #4
  ret void
}