; Function Attrs: nounwind uwtable
define void @SCT_LIST_print(ptr noundef %0, ptr noundef %1, i32 noundef %2, ptr noundef %3, ptr noundef %4) local_unnamed_addr #0 {
  %6 = tail call i32 @OPENSSL_sk_num(ptr noundef %0) #3
  %7 = icmp sgt i32 %6, 0
  br i1 %7, label %.lr.ph, label %._crit_edge

.lr.ph:                                           ; preds = %5, %14
  %.013 = phi i32 [ %15, %14 ], [ 0, %5 ]
  %8 = tail call ptr @OPENSSL_sk_value(ptr noundef %0, i32 noundef %.013) #3
  tail call void @SCT_print(ptr noundef %8, ptr noundef %1, i32 noundef %2, ptr noundef %4)
  %9 = tail call i32 @OPENSSL_sk_num(ptr noundef %0) #3
  %10 = add nsw i32 %9, -1
  %11 = icmp slt i32 %.013, %10
  br i1 %11, label %12, label %14

12:                                               ; preds = %.lr.ph
  %13 = tail call i32 (ptr, ptr, ...) @BIO_printf(ptr noundef %1, ptr noundef nonnull @.str.19, ptr noundef %3) #3
  br label %14

14:                                               ; preds = %12, %.lr.ph
  %15 = add nuw nsw i32 %.013, 1
  %exitcond.not = icmp eq i32 %15, %6
  br i1 %exitcond.not, label %._crit_edge, label %.lr.ph, !llvm.loop !22

._crit_edge:                                      ; preds = %14, %5
  ret void
}